target datalayout = "e-m:e-p270:32:32-p271:32:32-p272:64:64-i64:64-i128:128-f80:128-n8:16:32:64-S128"
target triple = "x86_64-pc-linux-gnu"

%class.RelocationHolder = type { [40 x i8] }
%class.RelocIterator = type { ptr, ptr, ptr, ptr, ptr, i16, ptr, i16, [3 x ptr], [3 x ptr], %class.RelocationHolder }
%class.Relocation.base = type <{ ptr, ptr, i32 }>
%class.Relocation = type <{ ptr, ptr, i32, [4 x i8] }>
%class.trampoline_stub_Relocation = type { %class.Relocation.base, ptr }

; Function Attrs: mustprogress nounwind uwtable
define linkonce_odr hidden noundef i32 @_ZN9relocInfo13short_data_atEiPsi(i32 noundef %0, ptr noundef %1, i32 noundef %2) #1 comdat align 2 {
  %4 = alloca i32, align 4
  %5 = alloca ptr, align 8
  %6 = alloca i32, align 4
  store i32 %0, ptr %4, align 4
  store ptr %1, ptr %5, align 8
  store i32 %2, ptr %6, align 4
  %7 = load i32, ptr %6, align 4
  %8 = load i32, ptr %4, align 4
  %9 = icmp sgt i32 %7, %8
  br i1 %9, label %10, label %17

10:                                               ; preds = %3
  %11 = load ptr, ptr %5, align 8
  %12 = load i32, ptr %4, align 4
  %13 = sext i32 %12 to i64
  %14 = getelementptr inbounds i16, ptr %11, i64 %13
  %15 = load i16, ptr %14, align 2
  %16 = sext i16 %15 to i32
  br label %18

17:                                               ; preds = %3
  br label %18

18:                                               ; preds = %17, %10
  %19 = phi i32 [ %16, %10 ], [ 0, %17 ]
  ret i32 %19
}

; Function Attrs: mustprogress nounwind uwtable
define linkonce_odr hidden noundef i32 @_ZN9relocInfo14jint_from_dataEPs(ptr noundef %0) #1 comdat align 2 {
  %2 = alloca ptr, align 8
  store ptr %0, ptr %2, align 8
  %3 = load ptr, ptr %2, align 8
  %4 = getelementptr inbounds i16, ptr %3, i64 0
  %5 = load i16, ptr %4, align 2
  %6 = sext i16 %5 to i32
  %7 = shl i32 %6, 16
  %8 = load ptr, ptr %2, align 8
  %9 = getelementptr inbounds i16, ptr %8, i64 1
  %10 = load i16, ptr %9, align 2
  %11 = zext i16 %10 to i32
  %12 = add nsw i32 %7, %11
  ret i32 %12
}

; Function Attrs: mustprogress nounwind uwtable
define linkonce_odr hidden noundef i32 @_ZNK13RelocIterator7datalenEv(ptr noundef nonnull align 8 dereferenceable(152) %0) #1 comdat align 2 {
  %2 = alloca ptr, align 8
  store ptr %0, ptr %2, align 8
  %3 = load ptr, ptr %2, align 8
  %4 = getelementptr inbounds %class.RelocIterator, ptr %3, i32 0, i32 7
  %5 = load i16, ptr %4, align 8
  %6 = sext i16 %5 to i32
  ret i32 %6
}

; Function Attrs: mustprogress nounwind uwtable
define linkonce_odr hidden noundef ptr @_ZNK13RelocIterator4dataEv(ptr noundef nonnull align 8 dereferenceable(152) %0) #1 comdat align 2 {
  %2 = alloca ptr, align 8
  store ptr %0, ptr %2, align 8
  %3 = load ptr, ptr %2, align 8
  %4 = getelementptr inbounds %class.RelocIterator, ptr %3, i32 0, i32 6
  %5 = load ptr, ptr %4, align 8
  ret ptr %5
}

; Function Attrs: mustprogress nounwind uwtable
define linkonce_odr hidden noundef i32 @_ZN9relocInfo9addr_unitEv() #1 comdat align 2 {
  ret i32 1
}

; Function Attrs: mustprogress nounwind uwtable
define linkonce_odr hidden noundef i32 @_ZN9relocInfo12jint_data_atEiPsi(i32 noundef %0, ptr noundef %1, i32 noundef %2) #1 comdat align 2 {
  %4 = alloca i32, align 4
  %5 = alloca ptr, align 8
  %6 = alloca i32, align 4
  store i32 %0, ptr %4, align 4
  store ptr %1, ptr %5, align 8
  store i32 %2, ptr %6, align 4
  %7 = load i32, ptr %6, align 4
  %8 = load i32, ptr %4, align 4
  %9 = add nsw i32 %8, 1
  %10 = icmp sgt i32 %7, %9
  br i1 %10, label %11, label %17

11:                                               ; preds = %3
  %12 = load ptr, ptr %5, align 8
  %13 = load i32, ptr %4, align 4
  %14 = sext i32 %13 to i64
  %15 = getelementptr inbounds i16, ptr %12, i64 %14
  %16 = call noundef i32 @_ZN9relocInfo14jint_from_dataEPs(ptr noundef %15)
  br label %22

17:                                               ; preds = %3
  %18 = load i32, ptr %4, align 4
  %19 = load ptr, ptr %5, align 8
  %20 = load i32, ptr %6, align 4
  %21 = call noundef i32 @_ZN9relocInfo13short_data_atEiPsi(i32 noundef %18, ptr noundef %19, i32 noundef %20)
  br label %22

22:                                               ; preds = %17, %11
  %23 = phi i32 [ %16, %11 ], [ %21, %17 ]
  ret i32 %23
}

; Function Attrs: mustprogress nounwind uwtable
define linkonce_odr hidden noundef i32 @_ZNK10Relocation7datalenEv(ptr noundef nonnull align 8 dereferenceable(20) %0) #1 comdat align 2 {
  %2 = alloca ptr, align 8
  store ptr %0, ptr %2, align 8
  %3 = load ptr, ptr %2, align 8
  %4 = call noundef ptr @_ZNK10Relocation7bindingEv(ptr noundef nonnull align 8 dereferenceable(20) %3)
  %5 = call noundef i32 @_ZNK13RelocIterator7datalenEv(ptr noundef nonnull align 8 dereferenceable(152) %4)
  ret i32 %5
}

; Function Attrs: mustprogress nounwind uwtable
define linkonce_odr hidden noundef ptr @_ZNK10Relocation4dataEv(ptr noundef nonnull align 8 dereferenceable(20) %0) #1 comdat align 2 {
  %2 = alloca ptr, align 8
  store ptr %0, ptr %2, align 8
  %3 = load ptr, ptr %2, align 8
  %4 = call noundef ptr @_ZNK10Relocation7bindingEv(ptr noundef nonnull align 8 dereferenceable(20) %3)
  %5 = call noundef ptr @_ZNK13RelocIterator4dataEv(ptr noundef nonnull align 8 dereferenceable(152) %4)
  ret ptr %5
}

; Function Attrs: mustprogress nounwind uwtable
define linkonce_odr hidden noundef ptr @_ZN10Relocation26address_from_scaled_offsetEiPh(i32 noundef %0, ptr noundef %1) #1 comdat align 2 {
  %3 = alloca i32, align 4
  %4 = alloca ptr, align 8
  %5 = alloca i32, align 4
  store i32 %0, ptr %3, align 4
  store ptr %1, ptr %4, align 8
  %6 = load i32, ptr %3, align 4
  %7 = call noundef i32 @_ZN9relocInfo9addr_unitEv()
  %8 = mul nsw i32 %6, %7
  %9 = sub nsw i32 0, %8
  store i32 %9, ptr %5, align 4
  %10 = load ptr, ptr %4, align 8
  %11 = load i32, ptr %5, align 4
  %12 = sext i32 %11 to i64
  %13 = getelementptr inbounds i8, ptr %10, i64 %12
  ret ptr %13
}

; Function Attrs: mustprogress nounwind uwtable
define linkonce_odr hidden noundef i32 @_ZN10Relocation12unpack_1_intEv(ptr noundef nonnull align 8 dereferenceable(20) %0) #1 comdat align 2 {
  %2 = alloca ptr, align 8
  store ptr %0, ptr %2, align 8
  %3 = load ptr, ptr %2, align 8
  %4 = call noundef ptr @_ZNK10Relocation4dataEv(ptr noundef nonnull align 8 dereferenceable(20) %3)
  %5 = call noundef i32 @_ZNK10Relocation7datalenEv(ptr noundef nonnull align 8 dereferenceable(20) %3)
  %6 = call noundef i32 @_ZN9relocInfo12jint_data_atEiPsi(i32 noundef 0, ptr noundef %4, i32 noundef %5)
  ret i32 %6
}

; Function Attrs: mustprogress nounwind uwtable
define linkonce_odr hidden noundef ptr @_ZNK13RelocIterator13section_startEi(ptr noundef nonnull align 8 dereferenceable(152) %0, i32 noundef %1) #1 comdat align 2 {
  %3 = alloca ptr, align 8
  %4 = alloca i32, align 4
  store ptr %0, ptr %3, align 8
  store i32 %1, ptr %4, align 4
  %5 = load ptr, ptr %3, align 8
  %6 = getelementptr inbounds %class.RelocIterator, ptr %5, i32 0, i32 8
  %7 = load i32, ptr %4, align 4
  %8 = sext i32 %7 to i64
  %9 = getelementptr inbounds [3 x ptr], ptr %6, i64 0, i64 %8
  %10 = load ptr, ptr %9, align 8
  ret ptr %10
}

; Function Attrs: mustprogress nounwind uwtable
define linkonce_odr hidden noundef ptr @_ZNK10Relocation7bindingEv(ptr noundef nonnull align 8 dereferenceable(20) %0) #1 comdat align 2 {
  %2 = alloca ptr, align 8
  store ptr %0, ptr %2, align 8
  %3 = load ptr, ptr %2, align 8
  %4 = getelementptr inbounds %class.Relocation, ptr %3, i32 0, i32 1
  %5 = load ptr, ptr %4, align 8
  ret ptr %5
}

; Function Attrs: mustprogress nounwind uwtable
define hidden void @_ZN26trampoline_stub_Relocation11unpack_dataEv(ptr noundef nonnull align 8 dereferenceable(32) %0) unnamed_addr #1 align 2 {
  %2 = alloca ptr, align 8
  %3 = alloca ptr, align 8
  store ptr %0, ptr %2, align 8
  %4 = load ptr, ptr %2, align 8
  %5 = call noundef ptr @_ZNK10Relocation7bindingEv(ptr noundef nonnull align 8 dereferenceable(20) %4)
  %6 = call noundef ptr @_ZNK13RelocIterator13section_startEi(ptr noundef nonnull align 8 dereferenceable(152) %5, i32 noundef 1)
  store ptr %6, ptr %3, align 8
  %7 = call noundef i32 @_ZN10Relocation12unpack_1_intEv(ptr noundef nonnull align 8 dereferenceable(20) %4)
  %8 = load ptr, ptr %3, align 8
  %9 = call noundef ptr @_ZN10Relocation26address_from_scaled_offsetEiPh(i32 noundef %7, ptr noundef %8)
  %10 = getelementptr inbounds %class.trampoline_stub_Relocation, ptr %4, i32 0, i32 1
  store ptr %9, ptr %10, align 8
  ret void
}