; Function Attrs: mustprogress nofree norecurse nosync nounwind willreturn memory(read, argmem: readwrite, inaccessiblemem: none) uwtable
define hidden void @_ZN26trampoline_stub_Relocation11unpack_dataEv(ptr nocapture noundef nonnull align 8 dereferenceable(32) %0) unnamed_addr #9 align 2 {
  %2 = getelementptr inbounds i8, ptr %0, i64 8
  %3 = load ptr, ptr %2, align 8
  %4 = getelementptr inbounds i8, ptr %3, i64 72
  %5 = load ptr, ptr %4, align 8
  %6 = getelementptr inbounds i8, ptr %3, i64 48
  %7 = load ptr, ptr %6, align 8
  %8 = getelementptr inbounds i8, ptr %3, i64 56
  %9 = load i16, ptr %8, align 8
  %10 = icmp sgt i16 %9, 1
  br i1 %10, label %11, label %19

11:                                               ; preds = %1
  %12 = load i16, ptr %7, align 2
  %13 = sext i16 %12 to i32
  %14 = shl nsw i32 %13, 16
  %15 = getelementptr inbounds i8, ptr %7, i64 2
  %16 = load i16, ptr %15, align 2
  %17 = zext i16 %16 to i32
  %18 = or disjoint i32 %14, %17
  br label %_ZN10Relocation12unpack_1_intEv.exit

19:                                               ; preds = %1
  %20 = icmp eq i16 %9, 1
  br i1 %20, label %21, label %_ZN10Relocation12unpack_1_intEv.exit

21:                                               ; preds = %19
  %22 = load i16, ptr %7, align 2
  %23 = sext i16 %22 to i32
  br label %_ZN10Relocation12unpack_1_intEv.exit

_ZN10Relocation12unpack_1_intEv.exit:             ; preds = %11, %19, %21
  %24 = phi i32 [ %18, %11 ], [ %23, %21 ], [ 0, %19 ]
  %25 = sub nsw i32 0, %24
  %26 = sext i32 %25 to i64
  %27 = getelementptr inbounds i8, ptr %5, i64 %26
  %28 = getelementptr inbounds i8, ptr %0, i64 24
  store ptr %27, ptr %28, align 8
  ret void
}